; Function Attrs: nounwind uwtable
define dso_local range(i32 -1, 1) i32 @PyUnstable_AtExit(ptr noundef captures(none) %0, ptr noundef %1, ptr noundef %2) local_unnamed_addr #0 {
  %4 = tail call align 8 ptr @llvm.threadlocal.address.p0(ptr align 8 @_Py_tss_tstate)
  %5 = load ptr, ptr %4, align 8, !tbaa !4
  %6 = icmp eq ptr %5, null
  br i1 %6, label %7, label %_Py_EnsureFuncTstateNotNULL.exit

7:                                                ; preds = %3
  tail call void @_Py_FatalErrorFunc(ptr noundef nonnull @__func__.PyUnstable_AtExit, ptr noundef nonnull @.str.1) #5
  unreachable

_Py_EnsureFuncTstateNotNULL.exit:                 ; preds = %3
  %8 = tail call ptr @PyMem_Malloc(i64 noundef 24) #6
  %9 = icmp eq ptr %8, null
  br i1 %9, label %10, label %12

10:                                               ; preds = %_Py_EnsureFuncTstateNotNULL.exit
  %11 = tail call ptr @PyErr_NoMemory() #6
  br label %17

12:                                               ; preds = %_Py_EnsureFuncTstateNotNULL.exit
  store ptr %1, ptr %8, align 8, !tbaa !9
  %13 = getelementptr inbounds nuw i8, ptr %8, i64 8
  store ptr %2, ptr %13, align 8, !tbaa !12
  %14 = getelementptr inbounds nuw i8, ptr %8, i64 16
  %15 = getelementptr inbounds nuw i8, ptr %0, i64 10728
  %16 = load ptr, ptr %15, align 8, !tbaa !13
  store ptr %16, ptr %14, align 8
  store ptr %8, ptr %15, align 8, !tbaa !13
  br label %17

17:                                               ; preds = %12, %10
  %.0 = phi i32 [ -1, %10 ], [ 0, %12 ]
  ret i32 %.0
}